(csympy.core.mul
Mul
p0
(csympy.core.power
Pow
p1
(csympy.core.add
Add
p2
(csympy.core.numbers
Float
p3
((I1
S'1L'
p4
I1
I1
tp5
tp6
Rp7
(dp8
S'_prec'
p9
I53
sbg0
(g3
((I0
S'3L'
p10
I1
I2
tp11
tp12
Rp13
(dp14
g9
I53
sbcsympy.core.symbol
Symbol
p15
(S'b'
p16
tp17
Rp18
(dp19
S'_assumptions'
p20
ccopy_reg
_reconstructor
p21
(csympy.core.assumptions
StdFactKB
p22
c__builtin__
dict
p23
(dp24
S'real'
p25
NsS'polar'
p26
NsS'irrational'
p27
NsS'antihermitian'
p28
NsS'nonpositive'
p29
NsS'algebraic'
p30
NsS'zero'
p31
NsS'infinite'
p32
NsS'integer'
p33
NsS'hermitian'
p34
NsS'odd'
p35
NsS'imaginary'
p36
NsS'even'
p37
NsS'commutative'
p38
I01
sS'positive'
p39
NsS'negative'
p40
NsS'nonnegative'
p41
NsS'complex'
p42
NsS'rational'
p43
NsS'finite'
p44
Nstp45
Rp46
sbtp47
Rp48
(dp49
btp50
Rp51
(dp52
bcsympy.core.numbers
NegativeOne
p53
(tRp54
(dp55
btp56
Rp57
(dp58
bg2
(g3
((I1
S'3L'
p59
I0
I2
tp60
tp61
Rp62
(dp63
g9
I53
sbg1
(g2
(g3
((I0
S'5L'
p64
I0
I3
tp65
tp66
Rp67
(dp68
g9
I53
sbg0
(g3
((I0
S'9L'
p69
I0
I4
tp70
tp71
Rp72
(dp73
g9
I53
sbg1
(g18
csympy.core.numbers
Integer
p74
(I2
tp75
Rp76
(dp77
btp78
Rp79
(dp80
btp81
Rp82
(dp83
bg0
(g3
((I1
S'9L'
p84
I1
I4
tp85
tp86
Rp87
(dp88
g9
I53
sbg18
tp89
Rp90
(dp91
btp92
Rp93
(dp94
bcsympy.core.numbers
Half
p95
(tRp96
(dp97
btp98
Rp99
(dp100
bg0
(g3
((I0
S'9L'
p101
I0
I4
tp102
tp103
Rp104
(dp105
g9
I53
sbg18
tp106
Rp107
(dp108
btp109
Rp110
(dp111
btp112
Rp113
(dp114
bg0
(g57
g1
(g2
(g3
((I1
S'1L'
p115
I1
I1
tp116
tp117
Rp118
(dp119
g9
I53
sbg0
(g57
g2
(g3
((I1
S'3L'
p120
I0
I2
tp121
tp122
Rp123
(dp124
g9
I53
sbg1
(g93
g3
((I0
S'1L'
p125
I-1
I1
tp126
tp127
Rp128
(dp129
g9
I53
sbtp130
Rp131
(dp132
bg0
(g3
((I0
S'9L'
p133
I0
I4
tp134
tp135
Rp136
(dp137
g9
I53
sbg18
tp138
Rp139
(dp140
btp141
Rp142
(dp143
btp144
Rp145
(dp146
btp147
Rp148
(dp149
bg54
tp150
Rp151
(dp152
bg2
(g3
((I1
S'ffffffffffffbL'
p153
I-52
I52
tp154
tp155
Rp156
(dp157
g9
I53
sbg0
(g3
((I0
S'1555555555554fL'
p158
I-54
I53
tp159
tp160
Rp161
(dp162
g9
I53
sbg57
g2
(g3
((I1
S'3L'
p163
I1
I2
tp164
tp165
Rp166
(dp167
g9
I53
sbg0
(g3
((I0
S'1L'
p168
I1
I1
tp169
tp170
Rp171
(dp172
g9
I53
sbg99
tp173
Rp174
(dp175
bg0
(g3
((I0
S'9L'
p176
I1
I4
tp177
tp178
Rp179
(dp180
g9
I53
sbg18
tp181
Rp182
(dp183
btp184
Rp185
(dp186
btp187
Rp188
(dp189
btp190
Rp191
(dp192
bg110
tp193
Rp194
(dp195
bg2
(g3
((I0
S'1555555555554fL'
p196
I-54
I53
tp197
tp198
Rp199
(dp200
g9
I53
sbg0
(g57
g2
(g3
((I1
S'8000000000001L'
p201
I-50
I52
tp202
tp203
Rp204
(dp205
g9
I53
sbg0
(g3
((I0
S'2aaaaaaaaaaabL'
p206
I-50
I50
tp207
tp208
Rp209
(dp210
g9
I53
sbg99
tp211
Rp212
(dp213
bg0
(g3
((I0
S'18000000000003L'
p214
I-50
I53
tp215
tp216
Rp217
(dp218
g9
I53
sbg18
tp219
Rp220
(dp221
btp222
Rp223
(dp224
btp225
Rp226
(dp227
btp228
Rp229
(dp230
btp231
.